target datalayout = "e-m:e-p270:32:32-p271:32:32-p272:64:64-i64:64-i128:128-f80:128-n8:16:32:64-S128"
target triple = "x86_64-pc-linux-gnu"

@hf_gryphon_reserved = internal global i32 0, align 4
@hf_gryphon_ldf_number = internal global i32 0, align 4
@hf_gryphon_ldf_remaining = internal global i32 0, align 4
@hf_gryphon_ldf_name = internal global i32 0, align 4
@hf_gryphon_ldf_description = internal global i32 0, align 4
@ett_gryphon_ldf_block = internal global i32 0, align 4
@.str.1108 = private unnamed_addr constant [7 x i8] c"LDF %d\00", align 1

; Function Attrs: null_pointer_is_valid sspstrong uwtable
define internal i32 @resp_ldf_list(ptr noundef %0, i32 noundef %1, ptr noundef %2) #0 {
  %4 = alloca ptr, align 8
  %5 = alloca i32, align 4
  %6 = alloca ptr, align 8
  %7 = alloca i32, align 4
  %8 = alloca i32, align 4
  %9 = alloca ptr, align 8
  store ptr %0, ptr %4, align 8
  store i32 %1, ptr %5, align 4
  store ptr %2, ptr %6, align 8
  call void @llvm.lifetime.start.p0(i64 4, ptr %7) #7
  call void @llvm.lifetime.start.p0(i64 4, ptr %8) #7
  call void @llvm.lifetime.start.p0(i64 8, ptr %9) #7
  %10 = load ptr, ptr %4, align 8
  %11 = load i32, ptr %5, align 4
  %12 = call zeroext i8 @tvb_get_uint8(ptr noundef %10, i32 noundef %11)
  %13 = zext i8 %12 to i32
  store i32 %13, ptr %7, align 4
  %14 = load ptr, ptr %6, align 8
  %15 = load i32, ptr @hf_gryphon_ldf_number, align 4
  %16 = load ptr, ptr %4, align 8
  %17 = load i32, ptr %5, align 4
  %18 = call ptr @proto_tree_add_item(ptr noundef %14, i32 noundef %15, ptr noundef %16, i32 noundef %17, i32 noundef 1, i32 noundef 0)
  %19 = load i32, ptr %5, align 4
  %20 = add i32 %19, 1
  store i32 %20, ptr %5, align 4
  %21 = load ptr, ptr %6, align 8
  %22 = load i32, ptr @hf_gryphon_reserved, align 4
  %23 = load ptr, ptr %4, align 8
  %24 = load i32, ptr %5, align 4
  %25 = call ptr @proto_tree_add_item(ptr noundef %21, i32 noundef %22, ptr noundef %23, i32 noundef %24, i32 noundef 1, i32 noundef 0)
  %26 = load i32, ptr %5, align 4
  %27 = add i32 %26, 1
  store i32 %27, ptr %5, align 4
  %28 = load ptr, ptr %6, align 8
  %29 = load i32, ptr @hf_gryphon_ldf_remaining, align 4
  %30 = load ptr, ptr %4, align 8
  %31 = load i32, ptr %5, align 4
  %32 = call ptr @proto_tree_add_item(ptr noundef %28, i32 noundef %29, ptr noundef %30, i32 noundef %31, i32 noundef 2, i32 noundef 0)
  %33 = load i32, ptr %5, align 4
  %34 = add i32 %33, 2
  store i32 %34, ptr %5, align 4
  store i32 0, ptr %8, align 4
  br label %35

35:                                               ; preds = %61, %3
  %36 = load i32, ptr %8, align 4
  %37 = load i32, ptr %7, align 4
  %38 = icmp slt i32 %36, %37
  br i1 %38, label %39, label %64

39:                                               ; preds = %35
  %40 = load ptr, ptr %6, align 8
  %41 = load ptr, ptr %4, align 8
  %42 = load i32, ptr %5, align 4
  %43 = load i32, ptr @ett_gryphon_ldf_block, align 4
  %44 = load i32, ptr %8, align 4
  %45 = add i32 %44, 1
  %46 = call ptr (ptr, ptr, i32, i32, i32, ptr, ptr, ...) @proto_tree_add_subtree_format(ptr noundef %40, ptr noundef %41, i32 noundef %42, i32 noundef 112, i32 noundef %43, ptr noundef null, ptr noundef @.str.1108, i32 noundef %45)
  store ptr %46, ptr %9, align 8
  %47 = load ptr, ptr %9, align 8
  %48 = load i32, ptr @hf_gryphon_ldf_name, align 4
  %49 = load ptr, ptr %4, align 8
  %50 = load i32, ptr %5, align 4
  %51 = call ptr @proto_tree_add_item(ptr noundef %47, i32 noundef %48, ptr noundef %49, i32 noundef %50, i32 noundef 32, i32 noundef 0)
  %52 = load i32, ptr %5, align 4
  %53 = add i32 %52, 32
  store i32 %53, ptr %5, align 4
  %54 = load ptr, ptr %9, align 8
  %55 = load i32, ptr @hf_gryphon_ldf_description, align 4
  %56 = load ptr, ptr %4, align 8
  %57 = load i32, ptr %5, align 4
  %58 = call ptr @proto_tree_add_item(ptr noundef %54, i32 noundef %55, ptr noundef %56, i32 noundef %57, i32 noundef 80, i32 noundef 0)
  %59 = load i32, ptr %5, align 4
  %60 = add i32 %59, 80
  store i32 %60, ptr %5, align 4
  br label %61

61:                                               ; preds = %39
  %62 = load i32, ptr %8, align 4
  %63 = add i32 %62, 1
  store i32 %63, ptr %8, align 4
  br label %35, !llvm.loop !32

64:                                               ; preds = %35
  %65 = load i32, ptr %5, align 4
  call void @llvm.lifetime.end.p0(i64 8, ptr %9) #7
  call void @llvm.lifetime.end.p0(i64 4, ptr %8) #7
  call void @llvm.lifetime.end.p0(i64 4, ptr %7) #7
  ret i32 %65
}