; Function Attrs: null_pointer_is_valid sspstrong uwtable
define internal fastcc range(i32 112, 21) i32 @resp_ldf_list(ptr noundef %0, ptr noundef %1) unnamed_addr #0 {
  %3 = tail call zeroext i8 @tvb_get_uint8(ptr noundef %0, i32 noundef 16)
  %4 = zext i8 %3 to i32
  %5 = load i32, ptr @hf_gryphon_ldf_number, align 4
  %6 = tail call ptr @proto_tree_add_item(ptr noundef %1, i32 noundef %5, ptr noundef %0, i32 noundef 16, i32 noundef 1, i32 noundef 0)
  %7 = load i32, ptr @hf_gryphon_reserved, align 4
  %8 = tail call ptr @proto_tree_add_item(ptr noundef %1, i32 noundef %7, ptr noundef %0, i32 noundef 17, i32 noundef 1, i32 noundef 0)
  %9 = load i32, ptr @hf_gryphon_ldf_remaining, align 4
  %10 = tail call ptr @proto_tree_add_item(ptr noundef %1, i32 noundef %9, ptr noundef %0, i32 noundef 18, i32 noundef 2, i32 noundef 0)
  %.not = icmp eq i8 %3, 0
  br i1 %.not, label %._crit_edge, label %.lr.ph

.lr.ph:                                           ; preds = %2, %.lr.ph
  %.031 = phi i32 [ %19, %.lr.ph ], [ 20, %2 ]
  %.02930 = phi i32 [ %12, %.lr.ph ], [ 0, %2 ]
  %11 = load i32, ptr @ett_gryphon_ldf_block, align 4
  %12 = add nuw nsw i32 %.02930, 1
  %13 = tail call ptr (ptr, ptr, i32, i32, i32, ptr, ptr, ...) @proto_tree_add_subtree_format(ptr noundef %1, ptr noundef %0, i32 noundef %.031, i32 noundef 112, i32 noundef %11, ptr noundef null, ptr noundef nonnull @.str.1108, i32 noundef %12)
  %14 = load i32, ptr @hf_gryphon_ldf_name, align 4
  %15 = tail call ptr @proto_tree_add_item(ptr noundef %13, i32 noundef %14, ptr noundef %0, i32 noundef %.031, i32 noundef 32, i32 noundef 0)
  %16 = add nuw nsw i32 %.031, 32
  %17 = load i32, ptr @hf_gryphon_ldf_description, align 4
  %18 = tail call ptr @proto_tree_add_item(ptr noundef %13, i32 noundef %17, ptr noundef %0, i32 noundef %16, i32 noundef 80, i32 noundef 0)
  %19 = add nuw nsw i32 %.031, 112
  %exitcond.not = icmp eq i32 %12, %4
  br i1 %exitcond.not, label %._crit_edge, label %.lr.ph, !llvm.loop !32

._crit_edge:                                      ; preds = %.lr.ph, %2
  %.0.lcssa = phi i32 [ 20, %2 ], [ %19, %.lr.ph ]
  ret i32 %.0.lcssa
}